target datalayout = "e-m:e-p270:32:32-p271:32:32-p272:64:64-i64:64-i128:128-f80:128-n8:16:32:64-S128"
target triple = "x86_64-pc-linux-gnu"

%struct.CDSFileMapRegion = type { i32, i32, i32, i32, i32, i32, i64, i64, i64, i64, i64, i64, i64, ptr }

@.str.4 = private unnamed_addr constant [41 x i8] c"- crc:                            0x%08x\00", align 1
@.str.117 = private unnamed_addr constant [42 x i8] c"============ region ============= %d \22%s\22\00", align 1
@.str.118 = private unnamed_addr constant [37 x i8] c"- read_only:                      %d\00", align 1
@.str.119 = private unnamed_addr constant [37 x i8] c"- allow_exec:                     %d\00", align 1
@.str.120 = private unnamed_addr constant [37 x i8] c"- is_heap_region:                 %d\00", align 1
@.str.121 = private unnamed_addr constant [37 x i8] c"- is_bitmap_region:               %d\00", align 1
@.str.122 = private unnamed_addr constant [37 x i8] c"- mapped_from_file:               %d\00", align 1
@.str.123 = private unnamed_addr constant [40 x i8] c"- file_offset:                    0x%lx\00", align 1
@.str.124 = private unnamed_addr constant [40 x i8] c"- mapping_offset:                 0x%lx\00", align 1
@.str.125 = private unnamed_addr constant [38 x i8] c"- used:                           %lu\00", align 1
@.str.126 = private unnamed_addr constant [40 x i8] c"- oopmap_offset:                  0x%lx\00", align 1
@.str.127 = private unnamed_addr constant [38 x i8] c"- oopmap_size_in_bits:            %lu\00", align 1
@.str.128 = private unnamed_addr constant [40 x i8] c"- ptrmap_offset:                  0x%lx\00", align 1
@.str.129 = private unnamed_addr constant [38 x i8] c"- ptrmap_size_in_bits:            %lu\00", align 1
@.str.130 = private unnamed_addr constant [43 x i8] c"- mapped_base:                    0x%016lx\00", align 1
@_ZZL11region_nameiE5names = internal global [4 x ptr] [ptr @.str.215, ptr @.str.216, ptr @.str.217, ptr @.str.218], align 16

; Function Attrs: mustprogress nounwind uwtable
define linkonce_odr hidden noundef i64 @_Z3p2iPVKv(ptr noundef %0) #1 comdat {
  %2 = alloca ptr, align 8
  store ptr %0, ptr %2, align 8
  %3 = load ptr, ptr %2, align 8
  %4 = ptrtoint ptr %3 to i64
  ret i64 %4
}

; Function Attrs: mustprogress nounwind uwtable
define internal noundef ptr @_ZL11region_namei(i32 noundef %0) #1 {
  %2 = alloca i32, align 4
  %3 = alloca i32, align 4
  store i32 %0, ptr %2, align 4
  store i32 4, ptr %3, align 4
  %4 = load i32, ptr %2, align 4
  %5 = sext i32 %4 to i64
  %6 = getelementptr inbounds [4 x ptr], ptr @_ZZL11region_nameiE5names, i64 0, i64 %5
  %7 = load ptr, ptr %6, align 8
  ret ptr %7
}

; Function Attrs: mustprogress nounwind uwtable
define hidden void @_ZN13FileMapRegion5printEP12outputStreami(ptr noundef nonnull align 8 dereferenceable(88) %0, ptr noundef %1, i32 noundef %2) #1 align 2 {
  %4 = alloca ptr, align 8
  %5 = alloca ptr, align 8
  %6 = alloca i32, align 4
  store ptr %0, ptr %4, align 8
  store ptr %1, ptr %5, align 8
  store i32 %2, ptr %6, align 4
  %7 = load ptr, ptr %4, align 8
  %8 = load ptr, ptr %5, align 8
  %9 = load i32, ptr %6, align 4
  %10 = load i32, ptr %6, align 4
  %11 = call noundef ptr @_ZL11region_namei(i32 noundef %10)
  call void (ptr, ptr, ...) @_ZN12outputStream8print_crEPKcz(ptr noundef nonnull align 8 dereferenceable(56) %8, ptr noundef @.str.117, i32 noundef %9, ptr noundef %11)
  %12 = load ptr, ptr %5, align 8
  %13 = getelementptr inbounds %struct.CDSFileMapRegion, ptr %7, i32 0, i32 0
  %14 = load i32, ptr %13, align 8
  call void (ptr, ptr, ...) @_ZN12outputStream8print_crEPKcz(ptr noundef nonnull align 8 dereferenceable(56) %12, ptr noundef @.str.4, i32 noundef %14)
  %15 = load ptr, ptr %5, align 8
  %16 = getelementptr inbounds %struct.CDSFileMapRegion, ptr %7, i32 0, i32 1
  %17 = load i32, ptr %16, align 4
  call void (ptr, ptr, ...) @_ZN12outputStream8print_crEPKcz(ptr noundef nonnull align 8 dereferenceable(56) %15, ptr noundef @.str.118, i32 noundef %17)
  %18 = load ptr, ptr %5, align 8
  %19 = getelementptr inbounds %struct.CDSFileMapRegion, ptr %7, i32 0, i32 2
  %20 = load i32, ptr %19, align 8
  call void (ptr, ptr, ...) @_ZN12outputStream8print_crEPKcz(ptr noundef nonnull align 8 dereferenceable(56) %18, ptr noundef @.str.119, i32 noundef %20)
  %21 = load ptr, ptr %5, align 8
  %22 = getelementptr inbounds %struct.CDSFileMapRegion, ptr %7, i32 0, i32 3
  %23 = load i32, ptr %22, align 4
  call void (ptr, ptr, ...) @_ZN12outputStream8print_crEPKcz(ptr noundef nonnull align 8 dereferenceable(56) %21, ptr noundef @.str.120, i32 noundef %23)
  %24 = load ptr, ptr %5, align 8
  %25 = getelementptr inbounds %struct.CDSFileMapRegion, ptr %7, i32 0, i32 4
  %26 = load i32, ptr %25, align 8
  call void (ptr, ptr, ...) @_ZN12outputStream8print_crEPKcz(ptr noundef nonnull align 8 dereferenceable(56) %24, ptr noundef @.str.121, i32 noundef %26)
  %27 = load ptr, ptr %5, align 8
  %28 = getelementptr inbounds %struct.CDSFileMapRegion, ptr %7, i32 0, i32 5
  %29 = load i32, ptr %28, align 4
  call void (ptr, ptr, ...) @_ZN12outputStream8print_crEPKcz(ptr noundef nonnull align 8 dereferenceable(56) %27, ptr noundef @.str.122, i32 noundef %29)
  %30 = load ptr, ptr %5, align 8
  %31 = getelementptr inbounds %struct.CDSFileMapRegion, ptr %7, i32 0, i32 6
  %32 = load i64, ptr %31, align 8
  call void (ptr, ptr, ...) @_ZN12outputStream8print_crEPKcz(ptr noundef nonnull align 8 dereferenceable(56) %30, ptr noundef @.str.123, i64 noundef %32)
  %33 = load ptr, ptr %5, align 8
  %34 = getelementptr inbounds %struct.CDSFileMapRegion, ptr %7, i32 0, i32 7
  %35 = load i64, ptr %34, align 8
  call void (ptr, ptr, ...) @_ZN12outputStream8print_crEPKcz(ptr noundef nonnull align 8 dereferenceable(56) %33, ptr noundef @.str.124, i64 noundef %35)
  %36 = load ptr, ptr %5, align 8
  %37 = getelementptr inbounds %struct.CDSFileMapRegion, ptr %7, i32 0, i32 8
  %38 = load i64, ptr %37, align 8
  call void (ptr, ptr, ...) @_ZN12outputStream8print_crEPKcz(ptr noundef nonnull align 8 dereferenceable(56) %36, ptr noundef @.str.125, i64 noundef %38)
  %39 = load ptr, ptr %5, align 8
  %40 = getelementptr inbounds %struct.CDSFileMapRegion, ptr %7, i32 0, i32 9
  %41 = load i64, ptr %40, align 8
  call void (ptr, ptr, ...) @_ZN12outputStream8print_crEPKcz(ptr noundef nonnull align 8 dereferenceable(56) %39, ptr noundef @.str.126, i64 noundef %41)
  %42 = load ptr, ptr %5, align 8
  %43 = getelementptr inbounds %struct.CDSFileMapRegion, ptr %7, i32 0, i32 10
  %44 = load i64, ptr %43, align 8
  call void (ptr, ptr, ...) @_ZN12outputStream8print_crEPKcz(ptr noundef nonnull align 8 dereferenceable(56) %42, ptr noundef @.str.127, i64 noundef %44)
  %45 = load ptr, ptr %5, align 8
  %46 = getelementptr inbounds %struct.CDSFileMapRegion, ptr %7, i32 0, i32 11
  %47 = load i64, ptr %46, align 8
  call void (ptr, ptr, ...) @_ZN12outputStream8print_crEPKcz(ptr noundef nonnull align 8 dereferenceable(56) %45, ptr noundef @.str.128, i64 noundef %47)
  %48 = load ptr, ptr %5, align 8
  %49 = getelementptr inbounds %struct.CDSFileMapRegion, ptr %7, i32 0, i32 12
  %50 = load i64, ptr %49, align 8
  call void (ptr, ptr, ...) @_ZN12outputStream8print_crEPKcz(ptr noundef nonnull align 8 dereferenceable(56) %48, ptr noundef @.str.129, i64 noundef %50)
  %51 = load ptr, ptr %5, align 8
  %52 = getelementptr inbounds %struct.CDSFileMapRegion, ptr %7, i32 0, i32 13
  %53 = load ptr, ptr %52, align 8
  %54 = call noundef i64 @_Z3p2iPVKv(ptr noundef %53)
  call void (ptr, ptr, ...) @_ZN12outputStream8print_crEPKcz(ptr noundef nonnull align 8 dereferenceable(56) %51, ptr noundef @.str.130, i64 noundef %54)
  ret void
}