; Function Attrs: mustprogress nounwind uwtable
define hidden void @_ZN13FileMapRegion5printEP12outputStreami(ptr nocapture noundef nonnull readonly align 8 dereferenceable(88) %0, ptr noundef nonnull %1, i32 noundef %2) local_unnamed_addr #0 align 2 {
  %4 = sext i32 %2 to i64
  %5 = getelementptr inbounds [4 x ptr], ptr @_ZZL11region_nameiE5names, i64 0, i64 %4
  %6 = load ptr, ptr %5, align 8
  tail call void (ptr, ptr, ...) @_ZN12outputStream8print_crEPKcz(ptr noundef nonnull align 8 dereferenceable(56) %1, ptr noundef nonnull @.str.117, i32 noundef %2, ptr noundef %6) #25
  %7 = load i32, ptr %0, align 8
  tail call void (ptr, ptr, ...) @_ZN12outputStream8print_crEPKcz(ptr noundef nonnull align 8 dereferenceable(56) %1, ptr noundef nonnull @.str.4, i32 noundef %7) #25
  %8 = getelementptr inbounds i8, ptr %0, i64 4
  %9 = load i32, ptr %8, align 4
  tail call void (ptr, ptr, ...) @_ZN12outputStream8print_crEPKcz(ptr noundef nonnull align 8 dereferenceable(56) %1, ptr noundef nonnull @.str.118, i32 noundef %9) #25
  %10 = getelementptr inbounds i8, ptr %0, i64 8
  %11 = load i32, ptr %10, align 8
  tail call void (ptr, ptr, ...) @_ZN12outputStream8print_crEPKcz(ptr noundef nonnull align 8 dereferenceable(56) %1, ptr noundef nonnull @.str.119, i32 noundef %11) #25
  %12 = getelementptr inbounds i8, ptr %0, i64 12
  %13 = load i32, ptr %12, align 4
  tail call void (ptr, ptr, ...) @_ZN12outputStream8print_crEPKcz(ptr noundef nonnull align 8 dereferenceable(56) %1, ptr noundef nonnull @.str.120, i32 noundef %13) #25
  %14 = getelementptr inbounds i8, ptr %0, i64 16
  %15 = load i32, ptr %14, align 8
  tail call void (ptr, ptr, ...) @_ZN12outputStream8print_crEPKcz(ptr noundef nonnull align 8 dereferenceable(56) %1, ptr noundef nonnull @.str.121, i32 noundef %15) #25
  %16 = getelementptr inbounds i8, ptr %0, i64 20
  %17 = load i32, ptr %16, align 4
  tail call void (ptr, ptr, ...) @_ZN12outputStream8print_crEPKcz(ptr noundef nonnull align 8 dereferenceable(56) %1, ptr noundef nonnull @.str.122, i32 noundef %17) #25
  %18 = getelementptr inbounds i8, ptr %0, i64 24
  %19 = load i64, ptr %18, align 8
  tail call void (ptr, ptr, ...) @_ZN12outputStream8print_crEPKcz(ptr noundef nonnull align 8 dereferenceable(56) %1, ptr noundef nonnull @.str.123, i64 noundef %19) #25
  %20 = getelementptr inbounds i8, ptr %0, i64 32
  %21 = load i64, ptr %20, align 8
  tail call void (ptr, ptr, ...) @_ZN12outputStream8print_crEPKcz(ptr noundef nonnull align 8 dereferenceable(56) %1, ptr noundef nonnull @.str.124, i64 noundef %21) #25
  %22 = getelementptr inbounds i8, ptr %0, i64 40
  %23 = load i64, ptr %22, align 8
  tail call void (ptr, ptr, ...) @_ZN12outputStream8print_crEPKcz(ptr noundef nonnull align 8 dereferenceable(56) %1, ptr noundef nonnull @.str.125, i64 noundef %23) #25
  %24 = getelementptr inbounds i8, ptr %0, i64 48
  %25 = load i64, ptr %24, align 8
  tail call void (ptr, ptr, ...) @_ZN12outputStream8print_crEPKcz(ptr noundef nonnull align 8 dereferenceable(56) %1, ptr noundef nonnull @.str.126, i64 noundef %25) #25
  %26 = getelementptr inbounds i8, ptr %0, i64 56
  %27 = load i64, ptr %26, align 8
  tail call void (ptr, ptr, ...) @_ZN12outputStream8print_crEPKcz(ptr noundef nonnull align 8 dereferenceable(56) %1, ptr noundef nonnull @.str.127, i64 noundef %27) #25
  %28 = getelementptr inbounds i8, ptr %0, i64 64
  %29 = load i64, ptr %28, align 8
  tail call void (ptr, ptr, ...) @_ZN12outputStream8print_crEPKcz(ptr noundef nonnull align 8 dereferenceable(56) %1, ptr noundef nonnull @.str.128, i64 noundef %29) #25
  %30 = getelementptr inbounds i8, ptr %0, i64 72
  %31 = load i64, ptr %30, align 8
  tail call void (ptr, ptr, ...) @_ZN12outputStream8print_crEPKcz(ptr noundef nonnull align 8 dereferenceable(56) %1, ptr noundef nonnull @.str.129, i64 noundef %31) #25
  %32 = getelementptr inbounds i8, ptr %0, i64 80
  %33 = load ptr, ptr %32, align 8
  %34 = ptrtoint ptr %33 to i64
  tail call void (ptr, ptr, ...) @_ZN12outputStream8print_crEPKcz(ptr noundef nonnull align 8 dereferenceable(56) %1, ptr noundef nonnull @.str.130, i64 noundef %34) #25
  ret void
}